; Function Attrs: nounwind uwtable
define internal void @apply_long_start_window(ptr noundef readonly captures(none) %0, ptr noundef %1, ptr noundef %2) #3 {
  %4 = getelementptr inbounds nuw i8, ptr %1, i64 12
  %5 = getelementptr inbounds nuw i8, ptr %1, i64 13
  %6 = load i8, ptr %5, align 1, !tbaa !66
  %.not = icmp eq i8 %6, 0
  %7 = select i1 %.not, ptr @ff_sine_1024, ptr @ff_aac_kbd_long_1024
  %8 = load i8, ptr %4, align 4, !tbaa !66
  %.not14 = icmp eq i8 %8, 0
  %9 = select i1 %.not14, ptr @ff_sine_128, ptr @ff_aac_kbd_short_128
  %10 = getelementptr inbounds nuw i8, ptr %1, i64 16656
  %11 = load ptr, ptr %0, align 8, !tbaa !227
  tail call void %11(ptr noundef nonnull %10, ptr noundef %2, ptr noundef nonnull %7, i32 noundef 1024) #11
  %12 = getelementptr inbounds nuw i8, ptr %1, i64 20752
  %13 = getelementptr inbounds nuw i8, ptr %2, i64 4096
  tail call void @llvm.memcpy.p0.p0.i64(ptr noundef nonnull align 4 dereferenceable(1792) %12, ptr noundef nonnull align 4 dereferenceable(1792) %13, i64 1792, i1 false)
  %14 = getelementptr inbounds nuw i8, ptr %0, i64 56
  %15 = load ptr, ptr %14, align 8, !tbaa !229
  %16 = getelementptr inbounds nuw i8, ptr %1, i64 22544
  %17 = getelementptr inbounds nuw i8, ptr %2, i64 5888
  tail call void %15(ptr noundef nonnull %16, ptr noundef nonnull %17, ptr noundef nonnull %9, i32 noundef 128) #11
  %18 = getelementptr inbounds nuw i8, ptr %1, i64 23056
  tail call void @llvm.memset.p0.i64(ptr noundef nonnull align 4 dereferenceable(1792) %18, i8 0, i64 1792, i1 false)
  ret void
}